; Function Attrs: mustprogress uwtable
define void @_ZN3zmq11mechanism_t19set_peer_routing_idEPKvm(ptr noundef nonnull align 8 captures(none) dereferenceable(1488) initializes((1448, 1456)) %0, ptr noundef readonly captures(none) %1, i64 noundef %2) local_unnamed_addr #0 align 2 {
  %4 = getelementptr inbounds nuw i8, ptr %0, i64 1440
  %5 = getelementptr inbounds nuw i8, ptr %0, i64 1456
  %6 = load i8, ptr %5, align 8, !tbaa !18, !range !82, !noundef !83
  %7 = trunc nuw i8 %6 to i1
  br i1 %7, label %8, label %_ZN3zmq6blob_t5clearEv.exit.i

8:                                                ; preds = %3
  %9 = load ptr, ptr %4, align 8, !tbaa !90
  tail call void @free(ptr noundef %9) #27
  br label %_ZN3zmq6blob_t5clearEv.exit.i

_ZN3zmq6blob_t5clearEv.exit.i:                    ; preds = %8, %3
  %10 = getelementptr inbounds nuw i8, ptr %0, i64 1448
  store i64 0, ptr %10, align 8
  %11 = tail call noalias ptr @malloc(i64 noundef %2) #32
  store ptr %11, ptr %4, align 8, !tbaa !90
  %.not.i = icmp ne i64 %2, 0
  %12 = icmp eq ptr %11, null
  %spec.select.i = and i1 %.not.i, %12
  br i1 %spec.select.i, label %.thread.i, label %17, !prof !36

.thread.i:                                        ; preds = %_ZN3zmq6blob_t5clearEv.exit.i
  %13 = load ptr, ptr @stderr, align 8, !tbaa !91
  %14 = tail call i32 (ptr, ptr, ...) @fprintf(ptr noundef %13, ptr noundef nonnull @.str.9, ptr noundef nonnull @.str.10, i32 noundef 117) #33
  %15 = load ptr, ptr @stderr, align 8, !tbaa !91
  %16 = tail call i32 @fflush(ptr noundef %15)
  tail call void @_ZN3zmq9zmq_abortEPKc(ptr noundef nonnull @.str.11)
  store i64 %2, ptr %10, align 8, !tbaa !93
  store i8 1, ptr %5, align 8, !tbaa !18
  %.pre = load ptr, ptr %4, align 8, !tbaa !90
  br label %18

17:                                               ; preds = %_ZN3zmq6blob_t5clearEv.exit.i
  store i64 %2, ptr %10, align 8, !tbaa !93
  store i8 1, ptr %5, align 8, !tbaa !18
  br i1 %.not.i, label %18, label %_ZN3zmq6blob_t3setEPKhm.exit

18:                                               ; preds = %17, %.thread.i
  %19 = phi ptr [ %11, %17 ], [ %.pre, %.thread.i ]
  %.not7.i = icmp eq ptr %19, null
  br i1 %.not7.i, label %_ZN3zmq6blob_t3setEPKhm.exit, label %20

20:                                               ; preds = %18
  tail call void @llvm.memcpy.p0.p0.i64(ptr nonnull align 1 %19, ptr align 1 %1, i64 %2, i1 false)
  br label %_ZN3zmq6blob_t3setEPKhm.exit

_ZN3zmq6blob_t3setEPKhm.exit:                     ; preds = %17, %18, %20
  ret void
}